; Function Attrs: mustprogress nounwind uwtable
define dso_local noundef ptr @_ZNK5clang18UserDefinedLiteral11getUDSuffixEv(ptr noundef nonnull readonly align 8 captures(none) dereferenceable(32) %0) local_unnamed_addr #4 align 2 {
  %2 = load i32, ptr %0, align 8
  %3 = lshr i32 %2, 24
  %4 = zext nneg i32 %3 to i64
  %5 = getelementptr inbounds nuw i8, ptr %0, i64 %4
  %6 = load ptr, ptr %5, align 8
  %7 = tail call noundef ptr @_ZN5clang4Expr25getReferencedDeclOfCalleeEv(ptr noundef nonnull align 8 dereferenceable(16) %6) #16
  %8 = tail call noundef ptr @_ZNK5clang12FunctionDecl20getLiteralIdentifierEv(ptr noundef nonnull align 8 dereferenceable(168) %7) #16
  ret ptr %8
}